; Function Attrs: mustprogress uwtable
define hidden noundef nonnull align 8 dereferenceable(32) ptr @_ZNK4cvc58internal11NodeManager12getOracleForERKNS0_12NodeTemplateILb1EEE(ptr nocapture noundef nonnull readonly align 8 dereferenceable(3360) %this, ptr noundef nonnull align 8 dereferenceable(8) %n) local_unnamed_addr #3 align 2 {
entry:
  %ref.tmp = alloca %"class.cvc5::internal::expr::Attribute.390", align 1
  %call = call noundef i64 @_ZNK4cvc58internal12NodeTemplateILb1EE12getAttributeINS0_4expr9AttributeINS4_4attr14OracleIndexTagEmEEEENT_10value_typeERKS9_(ptr noundef nonnull align 8 dereferenceable(8) %n, ptr noundef nonnull align 1 dereferenceable(1) %ref.tmp)
  %d_oracles = getelementptr inbounds i8, ptr %this, i64 3176
  %0 = load ptr, ptr %d_oracles, align 8
  %add.ptr.i = getelementptr inbounds %"class.std::unique_ptr.391", ptr %0, i64 %call
  %1 = load ptr, ptr %add.ptr.i, align 8
  ret ptr %1
}